; Function Attrs: mustprogress nounwind uwtable
define hidden void @_ZN4cvc58internal6theory4bags13BagEnumeratorD2Ev(ptr nocapture noundef nonnull align 8 dereferenceable(48) %this) unnamed_addr #4 align 2 personality ptr @__gxx_personality_v0 {
entry:
  store ptr getelementptr inbounds ({ [8 x ptr] }, ptr @_ZTVN4cvc58internal6theory4bags13BagEnumeratorE, i64 0, i32 0, i64 2), ptr %this, align 8
  %d_element = getelementptr inbounds i8, ptr %this, i64 40
  %0 = load ptr, ptr %d_element, align 8
  %bf.load.i.i = load i64, ptr %0, align 8
  %1 = and i64 %bf.load.i.i, 1152920405095219200
  %cmp.not.i.i = icmp eq i64 %1, 1152920405095219200
  br i1 %cmp.not.i.i, label %_ZN4cvc58internal12NodeTemplateILb1EED2Ev.exit, label %if.then.i.i

if.then.i.i:                                      ; preds = %entry
  %bf.value.i.i = add i64 %bf.load.i.i, 1152920405095219200
  %bf.shl.i.i = and i64 %bf.value.i.i, 1152920405095219200
  %bf.clear7.i.i = and i64 %bf.load.i.i, -1152920405095219201
  %bf.set.i.i = or disjoint i64 %bf.shl.i.i, %bf.clear7.i.i
  store i64 %bf.set.i.i, ptr %0, align 8
  %cmp12.i.i = icmp eq i64 %bf.shl.i.i, 0
  br i1 %cmp12.i.i, label %if.then13.i.i, label %_ZN4cvc58internal12NodeTemplateILb1EED2Ev.exit

if.then13.i.i:                                    ; preds = %if.then.i.i
  invoke void @_ZN4cvc58internal4expr9NodeValue15markForDeletionEv(ptr noundef nonnull align 8 dereferenceable(16) %0)
          to label %_ZN4cvc58internal12NodeTemplateILb1EED2Ev.exit unwind label %terminate.lpad.i

terminate.lpad.i:                                 ; preds = %if.then13.i.i
  %2 = landingpad { ptr, i32 }
          catch ptr null
  %3 = extractvalue { ptr, i32 } %2, 0
  tail call void @__clang_call_terminate(ptr %3) #14
  unreachable

_ZN4cvc58internal12NodeTemplateILb1EED2Ev.exit:   ; preds = %entry, %if.then.i.i, %if.then13.i.i
  %d_currentBag = getelementptr inbounds i8, ptr %this, i64 32
  %4 = load ptr, ptr %d_currentBag, align 8
  %bf.load.i.i1 = load i64, ptr %4, align 8
  %5 = and i64 %bf.load.i.i1, 1152920405095219200
  %cmp.not.i.i2 = icmp eq i64 %5, 1152920405095219200
  br i1 %cmp.not.i.i2, label %_ZN4cvc58internal12NodeTemplateILb1EED2Ev.exit11, label %if.then.i.i3

if.then.i.i3:                                     ; preds = %_ZN4cvc58internal12NodeTemplateILb1EED2Ev.exit
  %bf.value.i.i4 = add i64 %bf.load.i.i1, 1152920405095219200
  %bf.shl.i.i5 = and i64 %bf.value.i.i4, 1152920405095219200
  %bf.clear7.i.i6 = and i64 %bf.load.i.i1, -1152920405095219201
  %bf.set.i.i7 = or disjoint i64 %bf.shl.i.i5, %bf.clear7.i.i6
  store i64 %bf.set.i.i7, ptr %4, align 8
  %cmp12.i.i8 = icmp eq i64 %bf.shl.i.i5, 0
  br i1 %cmp12.i.i8, label %if.then13.i.i9, label %_ZN4cvc58internal12NodeTemplateILb1EED2Ev.exit11

if.then13.i.i9:                                   ; preds = %if.then.i.i3
  invoke void @_ZN4cvc58internal4expr9NodeValue15markForDeletionEv(ptr noundef nonnull align 8 dereferenceable(16) %4)
          to label %_ZN4cvc58internal12NodeTemplateILb1EED2Ev.exit11 unwind label %terminate.lpad.i10

terminate.lpad.i10:                               ; preds = %if.then13.i.i9
  %6 = landingpad { ptr, i32 }
          catch ptr null
  %7 = extractvalue { ptr, i32 } %6, 0
  tail call void @__clang_call_terminate(ptr %7) #14
  unreachable

_ZN4cvc58internal12NodeTemplateILb1EED2Ev.exit11: ; preds = %_ZN4cvc58internal12NodeTemplateILb1EED2Ev.exit, %if.then.i.i3, %if.then13.i.i9
  %d_elementTypeEnumerator = getelementptr inbounds i8, ptr %this, i64 24
  %8 = load ptr, ptr %d_elementTypeEnumerator, align 8
  %isnull.i = icmp eq ptr %8, null
  br i1 %isnull.i, label %_ZN4cvc58internal6theory14TypeEnumeratorD2Ev.exit, label %delete.notnull.i

delete.notnull.i:                                 ; preds = %_ZN4cvc58internal12NodeTemplateILb1EED2Ev.exit11
  %vtable.i = load ptr, ptr %8, align 8
  %vfn.i = getelementptr inbounds i8, ptr %vtable.i, i64 8
  %9 = load ptr, ptr %vfn.i, align 8
  tail call void %9(ptr noundef nonnull align 8 dereferenceable(16) %8) #15
  br label %_ZN4cvc58internal6theory14TypeEnumeratorD2Ev.exit

_ZN4cvc58internal6theory14TypeEnumeratorD2Ev.exit: ; preds = %_ZN4cvc58internal12NodeTemplateILb1EED2Ev.exit11, %delete.notnull.i
  store ptr getelementptr inbounds ({ [8 x ptr] }, ptr @_ZTVN4cvc58internal6theory23TypeEnumeratorInterfaceE, i64 0, i32 0, i64 2), ptr %this, align 8
  %d_type.i.i = getelementptr inbounds i8, ptr %this, i64 8
  %10 = load ptr, ptr %d_type.i.i, align 8
  %bf.load.i.i.i.i = load i64, ptr %10, align 8
  %11 = and i64 %bf.load.i.i.i.i, 1152920405095219200
  %cmp.not.i.i.i.i = icmp eq i64 %11, 1152920405095219200
  br i1 %cmp.not.i.i.i.i, label %_ZN4cvc58internal6theory18TypeEnumeratorBaseINS1_4bags13BagEnumeratorEED2Ev.exit, label %if.then.i.i.i.i

if.then.i.i.i.i:                                  ; preds = %_ZN4cvc58internal6theory14TypeEnumeratorD2Ev.exit
  %bf.value.i.i.i.i = add i64 %bf.load.i.i.i.i, 1152920405095219200
  %bf.shl.i.i.i.i = and i64 %bf.value.i.i.i.i, 1152920405095219200
  %bf.clear7.i.i.i.i = and i64 %bf.load.i.i.i.i, -1152920405095219201
  %bf.set.i.i.i.i = or disjoint i64 %bf.shl.i.i.i.i, %bf.clear7.i.i.i.i
  store i64 %bf.set.i.i.i.i, ptr %10, align 8
  %cmp12.i.i.i.i = icmp eq i64 %bf.shl.i.i.i.i, 0
  br i1 %cmp12.i.i.i.i, label %if.then13.i.i.i.i, label %_ZN4cvc58internal6theory18TypeEnumeratorBaseINS1_4bags13BagEnumeratorEED2Ev.exit

if.then13.i.i.i.i:                                ; preds = %if.then.i.i.i.i
  invoke void @_ZN4cvc58internal4expr9NodeValue15markForDeletionEv(ptr noundef nonnull align 8 dereferenceable(16) %10)
          to label %_ZN4cvc58internal6theory18TypeEnumeratorBaseINS1_4bags13BagEnumeratorEED2Ev.exit unwind label %terminate.lpad.i.i.i

terminate.lpad.i.i.i:                             ; preds = %if.then13.i.i.i.i
  %12 = landingpad { ptr, i32 }
          catch ptr null
  %13 = extractvalue { ptr, i32 } %12, 0
  tail call void @__clang_call_terminate(ptr %13) #14
  unreachable

_ZN4cvc58internal6theory18TypeEnumeratorBaseINS1_4bags13BagEnumeratorEED2Ev.exit: ; preds = %_ZN4cvc58internal6theory14TypeEnumeratorD2Ev.exit, %if.then.i.i.i.i, %if.then13.i.i.i.i
  ret void
}